target datalayout = "e-m:e-p270:32:32-p271:32:32-p272:64:64-i64:64-i128:128-f80:128-n8:16:32:64-S128"
target triple = "x86_64-pc-linux-gnu"

%struct.SDL_Touch = type { i64, i32, i32, i32, ptr, ptr }
%struct.SDL_Rect = type { i32, i32, i32, i32 }
%struct.SDL_Finger = type { i64, float, float, float }
%union.SDL_Event = type { %struct.SDL_MouseWheelEvent, [72 x i8] }
%struct.SDL_MouseWheelEvent = type { i32, i32, i64, i32, i32, float, float, i32, float, float, i32, i32 }
%struct.SDL_Mouse = type { ptr, ptr, ptr, ptr, ptr, ptr, ptr, ptr, ptr, ptr, ptr, ptr, ptr, ptr, i8, float, float, ptr, float, float, float, float, float, float, float, float, double, double, i8, i8, i8, i8, i8, i8, i8, i8, i64, i8, float, i8, float, i8, i32, i32, i8, i8, i8, i8, i8, i8, i8, i8, i8, ptr, i32, ptr, ptr, ptr, ptr, i8, ptr }
%struct.SDL_Window = type { i32, ptr, ptr, i32, i32, i32, i32, i32, i32, i32, i32, float, float, i32, i32, i64, i64, float, i8, i8, i32, i32, %struct.SDL_Rect, %struct.SDL_Rect, %struct.SDL_Rect, i8, i8, i8, %struct.SDL_DisplayMode, %struct.SDL_DisplayMode, %struct.SDL_HDROutputProperties, float, ptr, i8, i8, i8, i8, i8, i8, i8, i8, i8, i32, i32, i32, i32, %struct.SDL_Rect, i32, i8, %struct.SDL_Rect, i32, %struct.SDL_Rect, ptr, ptr, i32, float, i32, i32, ptr, ptr, ptr, ptr, ptr, ptr, ptr, ptr, ptr }
%struct.SDL_DisplayMode = type { i32, i32, i32, i32, float, float, i32, i32, ptr }
%struct.SDL_HDROutputProperties = type { float, float }
%struct.SDL_CommonEvent = type { i32, i32, i64 }
%struct.SDL_TouchFingerEvent = type { i32, i32, i64, i64, i64, float, float, float, float, float, i32 }

@finger_touching = internal global i8 0, align 1
@track_touchid = internal global i64 0, align 8
@track_fingerid = internal global i64 0, align 8

; Function Attrs: nounwind uwtable
define internal i32 @SDL_GetFingerIndex(ptr noundef %0, i64 noundef %1) #0 {
  %3 = alloca i32, align 4
  %4 = alloca ptr, align 8
  %5 = alloca i64, align 8
  %6 = alloca i32, align 4
  %7 = alloca i32, align 4
  store ptr %0, ptr %4, align 8
  store i64 %1, ptr %5, align 8
  call void @llvm.lifetime.start.p0(i64 4, ptr %6) #5
  store i32 0, ptr %6, align 4
  br label %8

8:                                                ; preds = %29, %2
  %9 = load i32, ptr %6, align 4
  %10 = load ptr, ptr %4, align 8
  %11 = getelementptr inbounds nuw %struct.SDL_Touch, ptr %10, i32 0, i32 2
  %12 = load i32, ptr %11, align 4
  %13 = icmp slt i32 %9, %12
  br i1 %13, label %14, label %32

14:                                               ; preds = %8
  %15 = load ptr, ptr %4, align 8
  %16 = getelementptr inbounds nuw %struct.SDL_Touch, ptr %15, i32 0, i32 4
  %17 = load ptr, ptr %16, align 8
  %18 = load i32, ptr %6, align 4
  %19 = sext i32 %18 to i64
  %20 = getelementptr inbounds ptr, ptr %17, i64 %19
  %21 = load ptr, ptr %20, align 8
  %22 = getelementptr inbounds nuw %struct.SDL_Finger, ptr %21, i32 0, i32 0
  %23 = load i64, ptr %22, align 8
  %24 = load i64, ptr %5, align 8
  %25 = icmp eq i64 %23, %24
  br i1 %25, label %26, label %28

26:                                               ; preds = %14
  %27 = load i32, ptr %6, align 4
  store i32 %27, ptr %3, align 4
  store i32 1, ptr %7, align 4
  br label %33

28:                                               ; preds = %14
  br label %29

29:                                               ; preds = %28
  %30 = load i32, ptr %6, align 4
  %31 = add nsw i32 %30, 1
  store i32 %31, ptr %6, align 4
  br label %8, !llvm.loop !11

32:                                               ; preds = %8
  store i32 -1, ptr %3, align 4
  store i32 1, ptr %7, align 4
  br label %33

33:                                               ; preds = %32, %26
  call void @llvm.lifetime.end.p0(i64 4, ptr %6) #5
  %34 = load i32, ptr %3, align 4
  ret i32 %34
}

; Function Attrs: nounwind uwtable
define internal ptr @SDL_GetFinger(ptr noundef %0, i64 noundef %1) #0 {
  %3 = alloca ptr, align 8
  %4 = alloca ptr, align 8
  %5 = alloca i64, align 8
  %6 = alloca i32, align 4
  %7 = alloca i32, align 4
  store ptr %0, ptr %4, align 8
  store i64 %1, ptr %5, align 8
  call void @llvm.lifetime.start.p0(i64 4, ptr %6) #5
  %8 = load ptr, ptr %4, align 8
  %9 = load i64, ptr %5, align 8
  %10 = call i32 @SDL_GetFingerIndex(ptr noundef %8, i64 noundef %9)
  store i32 %10, ptr %6, align 4
  %11 = load i32, ptr %6, align 4
  %12 = icmp slt i32 %11, 0
  br i1 %12, label %19, label %13

13:                                               ; preds = %2
  %14 = load i32, ptr %6, align 4
  %15 = load ptr, ptr %4, align 8
  %16 = getelementptr inbounds nuw %struct.SDL_Touch, ptr %15, i32 0, i32 2
  %17 = load i32, ptr %16, align 4
  %18 = icmp sge i32 %14, %17
  br i1 %18, label %19, label %20

19:                                               ; preds = %13, %2
  store ptr null, ptr %3, align 8
  store i32 1, ptr %7, align 4
  br label %28

20:                                               ; preds = %13
  %21 = load ptr, ptr %4, align 8
  %22 = getelementptr inbounds nuw %struct.SDL_Touch, ptr %21, i32 0, i32 4
  %23 = load ptr, ptr %22, align 8
  %24 = load i32, ptr %6, align 4
  %25 = sext i32 %24 to i64
  %26 = getelementptr inbounds ptr, ptr %23, i64 %25
  %27 = load ptr, ptr %26, align 8
  store ptr %27, ptr %3, align 8
  store i32 1, ptr %7, align 4
  br label %28

28:                                               ; preds = %20, %19
  call void @llvm.lifetime.end.p0(i64 4, ptr %6) #5
  %29 = load ptr, ptr %3, align 8
  ret ptr %29
}

; Function Attrs: nounwind uwtable
define hidden void @SDL_SendTouchMotion(i64 noundef %0, i64 noundef %1, i64 noundef %2, ptr noundef %3, float noundef %4, float noundef %5, float noundef %6) #0 {
  %8 = alloca i64, align 8
  %9 = alloca i64, align 8
  %10 = alloca i64, align 8
  %11 = alloca ptr, align 8
  %12 = alloca float, align 4
  %13 = alloca float, align 4
  %14 = alloca float, align 4
  %15 = alloca ptr, align 8
  %16 = alloca ptr, align 8
  %17 = alloca float, align 4
  %18 = alloca float, align 4
  %19 = alloca float, align 4
  %20 = alloca i32, align 4
  %21 = alloca ptr, align 8
  %22 = alloca float, align 4
  %23 = alloca float, align 4
  %24 = alloca %union.SDL_Event, align 8
  store i64 %0, ptr %8, align 8
  store i64 %1, ptr %9, align 8
  store i64 %2, ptr %10, align 8
  store ptr %3, ptr %11, align 8
  store float %4, ptr %12, align 4
  store float %5, ptr %13, align 4
  store float %6, ptr %14, align 4
  call void @llvm.lifetime.start.p0(i64 8, ptr %15) #5
  call void @llvm.lifetime.start.p0(i64 8, ptr %16) #5
  call void @llvm.lifetime.start.p0(i64 4, ptr %17) #5
  call void @llvm.lifetime.start.p0(i64 4, ptr %18) #5
  call void @llvm.lifetime.start.p0(i64 4, ptr %19) #5
  %25 = load i64, ptr %9, align 8
  %26 = call ptr @SDL_GetTouch(i64 noundef %25)
  store ptr %26, ptr %15, align 8
  %27 = load ptr, ptr %15, align 8
  %28 = icmp ne ptr %27, null
  br i1 %28, label %30, label %29

29:                                               ; preds = %7
  store i32 1, ptr %20, align 4
  br label %205

30:                                               ; preds = %7
  call void @llvm.lifetime.start.p0(i64 8, ptr %21) #5
  %31 = call ptr @SDL_GetMouse()
  store ptr %31, ptr %21, align 8
  %32 = load i64, ptr %9, align 8
  %33 = icmp ne i64 %32, -1
  br i1 %33, label %34, label %114

34:                                               ; preds = %30
  %35 = load i64, ptr %9, align 8
  %36 = icmp ne i64 %35, -2
  br i1 %36, label %37, label %114

37:                                               ; preds = %34
  %38 = load ptr, ptr %21, align 8
  %39 = getelementptr inbounds nuw %struct.SDL_Mouse, ptr %38, i32 0, i32 44
  %40 = load i8, ptr %39, align 4, !range !7, !noundef !8
  %41 = trunc i8 %40 to i1
  br i1 %41, label %42, label %113

42:                                               ; preds = %37
  %43 = load ptr, ptr %11, align 8
  %44 = icmp ne ptr %43, null
  br i1 %44, label %45, label %112

45:                                               ; preds = %42
  %46 = load i8, ptr @finger_touching, align 1, !range !7, !noundef !8
  %47 = trunc i8 %46 to i1
  %48 = zext i1 %47 to i32
  %49 = icmp eq i32 %48, 1
  br i1 %49, label %50, label %111

50:                                               ; preds = %45
  %51 = load i64, ptr @track_touchid, align 8
  %52 = load i64, ptr %9, align 8
  %53 = icmp eq i64 %51, %52
  br i1 %53, label %54, label %111

54:                                               ; preds = %50
  %55 = load i64, ptr @track_fingerid, align 8
  %56 = load i64, ptr %10, align 8
  %57 = icmp eq i64 %55, %56
  br i1 %57, label %58, label %111

58:                                               ; preds = %54
  call void @llvm.lifetime.start.p0(i64 4, ptr %22) #5
  %59 = load float, ptr %12, align 4
  %60 = load ptr, ptr %11, align 8
  %61 = getelementptr inbounds nuw %struct.SDL_Window, ptr %60, i32 0, i32 5
  %62 = load i32, ptr %61, align 8
  %63 = sitofp i32 %62 to float
  %64 = fmul float %59, %63
  store float %64, ptr %22, align 4
  call void @llvm.lifetime.start.p0(i64 4, ptr %23) #5
  %65 = load float, ptr %13, align 4
  %66 = load ptr, ptr %11, align 8
  %67 = getelementptr inbounds nuw %struct.SDL_Window, ptr %66, i32 0, i32 6
  %68 = load i32, ptr %67, align 4
  %69 = sitofp i32 %68 to float
  %70 = fmul float %65, %69
  store float %70, ptr %23, align 4
  %71 = load float, ptr %22, align 4
  %72 = fcmp olt float %71, 0.000000e+00
  br i1 %72, label %73, label %74

73:                                               ; preds = %58
  store float 0.000000e+00, ptr %22, align 4
  br label %74

74:                                               ; preds = %73, %58
  %75 = load float, ptr %22, align 4
  %76 = load ptr, ptr %11, align 8
  %77 = getelementptr inbounds nuw %struct.SDL_Window, ptr %76, i32 0, i32 5
  %78 = load i32, ptr %77, align 8
  %79 = sub nsw i32 %78, 1
  %80 = sitofp i32 %79 to float
  %81 = fcmp ogt float %75, %80
  br i1 %81, label %82, label %88

82:                                               ; preds = %74
  %83 = load ptr, ptr %11, align 8
  %84 = getelementptr inbounds nuw %struct.SDL_Window, ptr %83, i32 0, i32 5
  %85 = load i32, ptr %84, align 8
  %86 = sub nsw i32 %85, 1
  %87 = sitofp i32 %86 to float
  store float %87, ptr %22, align 4
  br label %88

88:                                               ; preds = %82, %74
  %89 = load float, ptr %23, align 4
  %90 = fcmp olt float %89, 0.000000e+00
  br i1 %90, label %91, label %92

91:                                               ; preds = %88
  store float 0.000000e+00, ptr %23, align 4
  br label %92

92:                                               ; preds = %91, %88
  %93 = load float, ptr %23, align 4
  %94 = load ptr, ptr %11, align 8
  %95 = getelementptr inbounds nuw %struct.SDL_Window, ptr %94, i32 0, i32 6
  %96 = load i32, ptr %95, align 4
  %97 = sub nsw i32 %96, 1
  %98 = sitofp i32 %97 to float
  %99 = fcmp ogt float %93, %98
  br i1 %99, label %100, label %106

100:                                              ; preds = %92
  %101 = load ptr, ptr %11, align 8
  %102 = getelementptr inbounds nuw %struct.SDL_Window, ptr %101, i32 0, i32 6
  %103 = load i32, ptr %102, align 4
  %104 = sub nsw i32 %103, 1
  %105 = sitofp i32 %104 to float
  store float %105, ptr %23, align 4
  br label %106

106:                                              ; preds = %100, %92
  %107 = load i64, ptr %8, align 8
  %108 = load ptr, ptr %11, align 8
  %109 = load float, ptr %22, align 4
  %110 = load float, ptr %23, align 4
  call void @SDL_SendMouseMotion(i64 noundef %107, ptr noundef %108, i32 noundef -1, i1 noundef zeroext false, float noundef %109, float noundef %110)
  call void @llvm.lifetime.end.p0(i64 4, ptr %23) #5
  call void @llvm.lifetime.end.p0(i64 4, ptr %22) #5
  br label %111

111:                                              ; preds = %106, %54, %50, %45
  br label %112

112:                                              ; preds = %111, %42
  br label %113

113:                                              ; preds = %112, %37
  br label %114

114:                                              ; preds = %113, %34, %30
  %115 = load ptr, ptr %21, align 8
  %116 = getelementptr inbounds nuw %struct.SDL_Mouse, ptr %115, i32 0, i32 45
  %117 = load i8, ptr %116, align 1, !range !7, !noundef !8
  %118 = trunc i8 %117 to i1
  %119 = zext i1 %118 to i32
  %120 = icmp eq i32 %119, 0
  br i1 %120, label %121, label %126

121:                                              ; preds = %114
  %122 = load i64, ptr %9, align 8
  %123 = icmp eq i64 %122, -1
  br i1 %123, label %124, label %125

124:                                              ; preds = %121
  store i32 1, ptr %20, align 4
  br label %204

125:                                              ; preds = %121
  br label %126

126:                                              ; preds = %125, %114
  %127 = load ptr, ptr %15, align 8
  %128 = load i64, ptr %10, align 8
  %129 = call ptr @SDL_GetFinger(ptr noundef %127, i64 noundef %128)
  store ptr %129, ptr %16, align 8
  %130 = load ptr, ptr %16, align 8
  %131 = icmp ne ptr %130, null
  br i1 %131, label %140, label %132

132:                                              ; preds = %126
  %133 = load i64, ptr %8, align 8
  %134 = load i64, ptr %9, align 8
  %135 = load i64, ptr %10, align 8
  %136 = load ptr, ptr %11, align 8
  %137 = load float, ptr %12, align 4
  %138 = load float, ptr %13, align 4
  %139 = load float, ptr %14, align 4
  call void @SDL_SendTouch(i64 noundef %133, i64 noundef %134, i64 noundef %135, ptr noundef %136, i32 noundef 1792, float noundef %137, float noundef %138, float noundef %139)
  store i32 1, ptr %20, align 4
  br label %204

140:                                              ; preds = %126
  %141 = load float, ptr %12, align 4
  %142 = load ptr, ptr %16, align 8
  %143 = getelementptr inbounds nuw %struct.SDL_Finger, ptr %142, i32 0, i32 1
  %144 = load float, ptr %143, align 8
  %145 = fsub float %141, %144
  store float %145, ptr %17, align 4
  %146 = load float, ptr %13, align 4
  %147 = load ptr, ptr %16, align 8
  %148 = getelementptr inbounds nuw %struct.SDL_Finger, ptr %147, i32 0, i32 2
  %149 = load float, ptr %148, align 4
  %150 = fsub float %146, %149
  store float %150, ptr %18, align 4
  %151 = load float, ptr %14, align 4
  %152 = load ptr, ptr %16, align 8
  %153 = getelementptr inbounds nuw %struct.SDL_Finger, ptr %152, i32 0, i32 3
  %154 = load float, ptr %153, align 8
  %155 = fsub float %151, %154
  store float %155, ptr %19, align 4
  %156 = load float, ptr %17, align 4
  %157 = fcmp oeq float %156, 0.000000e+00
  br i1 %157, label %158, label %165

158:                                              ; preds = %140
  %159 = load float, ptr %18, align 4
  %160 = fcmp oeq float %159, 0.000000e+00
  br i1 %160, label %161, label %165

161:                                              ; preds = %158
  %162 = load float, ptr %19, align 4
  %163 = fcmp oeq float %162, 0.000000e+00
  br i1 %163, label %164, label %165

164:                                              ; preds = %161
  store i32 1, ptr %20, align 4
  br label %204

165:                                              ; preds = %161, %158, %140
  %166 = load float, ptr %12, align 4
  %167 = load ptr, ptr %16, align 8
  %168 = getelementptr inbounds nuw %struct.SDL_Finger, ptr %167, i32 0, i32 1
  store float %166, ptr %168, align 8
  %169 = load float, ptr %13, align 4
  %170 = load ptr, ptr %16, align 8
  %171 = getelementptr inbounds nuw %struct.SDL_Finger, ptr %170, i32 0, i32 2
  store float %169, ptr %171, align 4
  %172 = load float, ptr %14, align 4
  %173 = load ptr, ptr %16, align 8
  %174 = getelementptr inbounds nuw %struct.SDL_Finger, ptr %173, i32 0, i32 3
  store float %172, ptr %174, align 8
  %175 = call zeroext i1 @SDL_EventEnabled_REAL(i32 noundef 1794)
  br i1 %175, label %176, label %203

176:                                              ; preds = %165
  call void @llvm.lifetime.start.p0(i64 128, ptr %24) #5
  store i32 1794, ptr %24, align 8
  %177 = load i64, ptr %8, align 8
  %178 = getelementptr inbounds nuw %struct.SDL_CommonEvent, ptr %24, i32 0, i32 2
  store i64 %177, ptr %178, align 8
  %179 = load i64, ptr %9, align 8
  %180 = getelementptr inbounds nuw %struct.SDL_TouchFingerEvent, ptr %24, i32 0, i32 3
  store i64 %179, ptr %180, align 8
  %181 = load i64, ptr %10, align 8
  %182 = getelementptr inbounds nuw %struct.SDL_TouchFingerEvent, ptr %24, i32 0, i32 4
  store i64 %181, ptr %182, align 8
  %183 = load float, ptr %12, align 4
  %184 = getelementptr inbounds nuw %struct.SDL_TouchFingerEvent, ptr %24, i32 0, i32 5
  store float %183, ptr %184, align 8
  %185 = load float, ptr %13, align 4
  %186 = getelementptr inbounds nuw %struct.SDL_TouchFingerEvent, ptr %24, i32 0, i32 6
  store float %185, ptr %186, align 4
  %187 = load float, ptr %17, align 4
  %188 = getelementptr inbounds nuw %struct.SDL_TouchFingerEvent, ptr %24, i32 0, i32 7
  store float %187, ptr %188, align 8
  %189 = load float, ptr %18, align 4
  %190 = getelementptr inbounds nuw %struct.SDL_TouchFingerEvent, ptr %24, i32 0, i32 8
  store float %189, ptr %190, align 4
  %191 = load float, ptr %14, align 4
  %192 = getelementptr inbounds nuw %struct.SDL_TouchFingerEvent, ptr %24, i32 0, i32 9
  store float %191, ptr %192, align 8
  %193 = load ptr, ptr %11, align 8
  %194 = icmp ne ptr %193, null
  br i1 %194, label %195, label %198

195:                                              ; preds = %176
  %196 = load ptr, ptr %11, align 8
  %197 = call i32 @SDL_GetWindowID_REAL(ptr noundef %196)
  br label %199

198:                                              ; preds = %176
  br label %199

199:                                              ; preds = %198, %195
  %200 = phi i32 [ %197, %195 ], [ 0, %198 ]
  %201 = getelementptr inbounds nuw %struct.SDL_TouchFingerEvent, ptr %24, i32 0, i32 10
  store i32 %200, ptr %201, align 4
  %202 = call zeroext i1 @SDL_PushEvent_REAL(ptr noundef %24)
  call void @llvm.lifetime.end.p0(i64 128, ptr %24) #5
  br label %203

203:                                              ; preds = %199, %165
  store i32 0, ptr %20, align 4
  br label %204

204:                                              ; preds = %203, %164, %132, %124
  call void @llvm.lifetime.end.p0(i64 8, ptr %21) #5
  br label %205

205:                                              ; preds = %204, %29
  call void @llvm.lifetime.end.p0(i64 4, ptr %19) #5
  call void @llvm.lifetime.end.p0(i64 4, ptr %18) #5
  call void @llvm.lifetime.end.p0(i64 4, ptr %17) #5
  call void @llvm.lifetime.end.p0(i64 8, ptr %16) #5
  call void @llvm.lifetime.end.p0(i64 8, ptr %15) #5
  %206 = load i32, ptr %20, align 4
  switch i32 %206, label %208 [
    i32 0, label %207
    i32 1, label %207
  ]

207:                                              ; preds = %205, %205
  ret void

208:                                              ; preds = %205
  unreachable
}