; Function Attrs: nounwind uwtable
define hidden void @SDL_SendTouchMotion(i64 noundef %0, i64 noundef %1, i64 noundef %2, ptr noundef %3, float noundef %4, float noundef %5, float noundef %6) local_unnamed_addr #2 {
  %8 = alloca %union.SDL_Event, align 8
  %9 = tail call ptr @SDL_GetTouch(i64 noundef %1)
  %.not = icmp eq ptr %9, null
  br i1 %.not, label %89, label %10

10:                                               ; preds = %7
  %11 = tail call ptr @SDL_GetMouse() #7
  %or.cond = icmp ult i64 %1, -2
  br i1 %or.cond, label %12, label %39

12:                                               ; preds = %10
  %13 = getelementptr inbounds nuw i8, ptr %11, i64 228
  %14 = load i8, ptr %13, align 4, !range !7, !noundef !8
  %15 = trunc nuw i8 %14 to i1
  %16 = icmp ne ptr %3, null
  %or.cond7 = and i1 %16, %15
  br i1 %or.cond7, label %17, label %.thread

17:                                               ; preds = %12
  %.b80 = load i1, ptr @finger_touching, align 1
  %18 = load i64, ptr @track_touchid, align 8
  %19 = icmp eq i64 %18, %1
  %or.cond84 = select i1 %.b80, i1 %19, i1 false
  %20 = load i64, ptr @track_fingerid, align 8
  %21 = icmp eq i64 %20, %2
  %or.cond86 = select i1 %or.cond84, i1 %21, i1 false
  br i1 %or.cond86, label %22, label %.thread

22:                                               ; preds = %17
  %23 = getelementptr inbounds nuw i8, ptr %3, i64 32
  %24 = load i32, ptr %23, align 8
  %25 = sitofp i32 %24 to float
  %26 = fmul float %4, %25
  %27 = getelementptr inbounds nuw i8, ptr %3, i64 36
  %28 = load i32, ptr %27, align 4
  %29 = sitofp i32 %28 to float
  %30 = fmul float %5, %29
  %31 = fcmp olt float %26, 0.000000e+00
  %.069 = select i1 %31, float 0.000000e+00, float %26
  %32 = add nsw i32 %24, -1
  %33 = sitofp i32 %32 to float
  %34 = fcmp ogt float %.069, %33
  %.170 = select i1 %34, float %33, float %.069
  %35 = fcmp olt float %30, 0.000000e+00
  %.0 = select i1 %35, float 0.000000e+00, float %30
  %36 = add nsw i32 %28, -1
  %37 = sitofp i32 %36 to float
  %38 = fcmp ogt float %.0, %37
  %.1 = select i1 %38, float %37, float %.0
  tail call void @SDL_SendMouseMotion(i64 noundef %0, ptr noundef nonnull %3, i32 noundef -1, i1 noundef zeroext false, float noundef %.170, float noundef %.1) #7
  br label %.thread

39:                                               ; preds = %10
  %40 = getelementptr inbounds nuw i8, ptr %11, i64 229
  %41 = load i8, ptr %40, align 1, !range !7, !noundef !8
  %42 = icmp eq i8 %41, 0
  %43 = icmp eq i64 %1, -1
  %or.cond9 = and i1 %43, %42
  br i1 %or.cond9, label %89, label %.thread

.thread:                                          ; preds = %22, %17, %12, %39
  %44 = getelementptr inbounds nuw i8, ptr %9, i64 12
  %45 = load i32, ptr %44, align 4
  %46 = icmp sgt i32 %45, 0
  br i1 %46, label %.lr.ph.i.i, label %SDL_GetFinger.exit.thread

.lr.ph.i.i:                                       ; preds = %.thread
  %47 = getelementptr inbounds nuw i8, ptr %9, i64 24
  %48 = load ptr, ptr %47, align 8
  %wide.trip.count.i.i = zext nneg i32 %45 to i64
  br label %49

49:                                               ; preds = %54, %.lr.ph.i.i
  %indvars.iv.i.i = phi i64 [ 0, %.lr.ph.i.i ], [ %indvars.iv.next.i.i, %54 ]
  %50 = getelementptr inbounds nuw ptr, ptr %48, i64 %indvars.iv.i.i
  %51 = load ptr, ptr %50, align 8
  %52 = load i64, ptr %51, align 8
  %53 = icmp eq i64 %52, %2
  br i1 %53, label %SDL_GetFingerIndex.exit.i, label %54

54:                                               ; preds = %49
  %indvars.iv.next.i.i = add nuw nsw i64 %indvars.iv.i.i, 1
  %exitcond.not.i.i = icmp eq i64 %indvars.iv.next.i.i, %wide.trip.count.i.i
  br i1 %exitcond.not.i.i, label %SDL_GetFinger.exit.thread, label %49, !llvm.loop !9

SDL_GetFingerIndex.exit.i:                        ; preds = %49
  %55 = trunc nuw nsw i64 %indvars.iv.i.i to i32
  %.not.i = icmp sgt i32 %45, %55
  br i1 %.not.i, label %SDL_GetFinger.exit, label %SDL_GetFinger.exit.thread

SDL_GetFinger.exit:                               ; preds = %SDL_GetFingerIndex.exit.i
  %56 = and i64 %indvars.iv.i.i, 4294967295
  %57 = getelementptr inbounds nuw ptr, ptr %48, i64 %56
  %58 = load ptr, ptr %57, align 8
  %.not81 = icmp eq ptr %58, null
  br i1 %.not81, label %SDL_GetFinger.exit.thread, label %59

SDL_GetFinger.exit.thread:                        ; preds = %54, %.thread, %SDL_GetFingerIndex.exit.i, %SDL_GetFinger.exit
  tail call void @SDL_SendTouch(i64 noundef %0, i64 noundef %1, i64 noundef %2, ptr noundef %3, i32 noundef 1792, float noundef %4, float noundef %5, float noundef %6)
  br label %89

59:                                               ; preds = %SDL_GetFinger.exit
  %60 = getelementptr inbounds nuw i8, ptr %58, i64 8
  %61 = load float, ptr %60, align 8
  %62 = fsub float %4, %61
  %63 = getelementptr inbounds nuw i8, ptr %58, i64 12
  %64 = load float, ptr %63, align 4
  %65 = fsub float %5, %64
  %66 = getelementptr inbounds nuw i8, ptr %58, i64 16
  %67 = load float, ptr %66, align 8
  %68 = fsub float %6, %67
  %69 = fcmp oeq float %62, 0.000000e+00
  %70 = fcmp oeq float %65, 0.000000e+00
  %or.cond3 = select i1 %69, i1 %70, i1 false
  %71 = fcmp oeq float %68, 0.000000e+00
  %or.cond5 = select i1 %or.cond3, i1 %71, i1 false
  br i1 %or.cond5, label %89, label %72

72:                                               ; preds = %59
  store float %4, ptr %60, align 8
  store float %5, ptr %63, align 4
  store float %6, ptr %66, align 8
  %73 = tail call zeroext i1 @SDL_EventEnabled_REAL(i32 noundef 1794) #7
  br i1 %73, label %74, label %89

74:                                               ; preds = %72
  call void @llvm.lifetime.start.p0(i64 128, ptr nonnull %8) #7
  store i32 1794, ptr %8, align 8
  %75 = getelementptr inbounds nuw i8, ptr %8, i64 8
  store i64 %0, ptr %75, align 8
  %76 = getelementptr inbounds nuw i8, ptr %8, i64 16
  store i64 %1, ptr %76, align 8
  %77 = getelementptr inbounds nuw i8, ptr %8, i64 24
  store i64 %2, ptr %77, align 8
  %78 = getelementptr inbounds nuw i8, ptr %8, i64 32
  store float %4, ptr %78, align 8
  %79 = getelementptr inbounds nuw i8, ptr %8, i64 36
  store float %5, ptr %79, align 4
  %80 = getelementptr inbounds nuw i8, ptr %8, i64 40
  store float %62, ptr %80, align 8
  %81 = getelementptr inbounds nuw i8, ptr %8, i64 44
  store float %65, ptr %81, align 4
  %82 = getelementptr inbounds nuw i8, ptr %8, i64 48
  store float %6, ptr %82, align 8
  %.not82 = icmp eq ptr %3, null
  br i1 %.not82, label %85, label %83

83:                                               ; preds = %74
  %84 = tail call i32 @SDL_GetWindowID_REAL(ptr noundef nonnull %3) #7
  br label %85

85:                                               ; preds = %74, %83
  %86 = phi i32 [ %84, %83 ], [ 0, %74 ]
  %87 = getelementptr inbounds nuw i8, ptr %8, i64 52
  store i32 %86, ptr %87, align 4
  %88 = call zeroext i1 @SDL_PushEvent_REAL(ptr noundef nonnull %8) #7
  call void @llvm.lifetime.end.p0(i64 128, ptr nonnull %8) #7
  br label %89

89:                                               ; preds = %SDL_GetFinger.exit.thread, %39, %59, %85, %72, %7
  ret void
}